target datalayout = "e-m:e-p270:32:32-p271:32:32-p272:64:64-i64:64-i128:128-f80:128-n8:16:32:64-S128"
target triple = "x86_64-pc-linux-gnu"

%struct.WebPChunk = type { i32, i32, %struct.WebPData, ptr }
%struct.WebPData = type { ptr, i64 }

; Function Attrs: nounwind uwtable
define hidden i32 @ChunkSetHead(ptr noundef %0, ptr noundef %1) #0 {
  %3 = alloca i32, align 4
  %4 = alloca ptr, align 8
  %5 = alloca ptr, align 8
  %6 = alloca ptr, align 8
  %7 = alloca i32, align 4
  store ptr %0, ptr %4, align 8, !tbaa !3
  store ptr %1, ptr %5, align 8, !tbaa !33
  call void @llvm.lifetime.start.p0(i64 8, ptr %6) #6
  %8 = load ptr, ptr %5, align 8, !tbaa !33
  %9 = load ptr, ptr %8, align 8, !tbaa !3
  %10 = icmp ne ptr %9, null
  br i1 %10, label %11, label %12

11:                                               ; preds = %2
  store i32 0, ptr %3, align 4
  store i32 1, ptr %7, align 4
  br label %26

12:                                               ; preds = %2
  %13 = call ptr @WebPSafeMalloc(i64 noundef 1, i64 noundef 32)
  store ptr %13, ptr %6, align 8, !tbaa !3
  %14 = load ptr, ptr %6, align 8, !tbaa !3
  %15 = icmp eq ptr %14, null
  br i1 %15, label %16, label %17

16:                                               ; preds = %12
  store i32 -3, ptr %3, align 4
  store i32 1, ptr %7, align 4
  br label %26

17:                                               ; preds = %12
  %18 = load ptr, ptr %6, align 8, !tbaa !3
  %19 = load ptr, ptr %4, align 8, !tbaa !3
  call void @llvm.memcpy.p0.p0.i64(ptr align 8 %18, ptr align 8 %19, i64 32, i1 false), !tbaa.struct !35
  %20 = load ptr, ptr %4, align 8, !tbaa !3
  %21 = getelementptr inbounds nuw %struct.WebPChunk, ptr %20, i32 0, i32 1
  store i32 0, ptr %21, align 4, !tbaa !14
  %22 = load ptr, ptr %6, align 8, !tbaa !3
  %23 = getelementptr inbounds nuw %struct.WebPChunk, ptr %22, i32 0, i32 3
  store ptr null, ptr %23, align 8, !tbaa !15
  %24 = load ptr, ptr %6, align 8, !tbaa !3
  %25 = load ptr, ptr %5, align 8, !tbaa !33
  store ptr %24, ptr %25, align 8, !tbaa !3
  store i32 1, ptr %3, align 4
  store i32 1, ptr %7, align 4
  br label %26

26:                                               ; preds = %17, %16, %11
  call void @llvm.lifetime.end.p0(i64 8, ptr %6) #6
  %27 = load i32, ptr %3, align 4
  ret i32 %27
}

; Function Attrs: nounwind uwtable
define hidden i32 @ChunkAppend(ptr noundef %0, ptr noundef %1) #0 {
  %3 = alloca ptr, align 8
  %4 = alloca ptr, align 8
  %5 = alloca i32, align 4
  %6 = alloca ptr, align 8
  store ptr %0, ptr %3, align 8, !tbaa !3
  store ptr %1, ptr %4, align 8, !tbaa !36
  call void @llvm.lifetime.start.p0(i64 4, ptr %5) #6
  %7 = load ptr, ptr %4, align 8, !tbaa !36
  %8 = load ptr, ptr %7, align 8, !tbaa !33
  %9 = load ptr, ptr %8, align 8, !tbaa !3
  %10 = icmp eq ptr %9, null
  br i1 %10, label %11, label %16

11:                                               ; preds = %2
  %12 = load ptr, ptr %3, align 8, !tbaa !3
  %13 = load ptr, ptr %4, align 8, !tbaa !36
  %14 = load ptr, ptr %13, align 8, !tbaa !33
  %15 = call i32 @ChunkSetHead(ptr noundef %12, ptr noundef %14)
  store i32 %15, ptr %5, align 4, !tbaa !19
  br label %41

16:                                               ; preds = %2
  call void @llvm.lifetime.start.p0(i64 8, ptr %6) #6
  %17 = load ptr, ptr %4, align 8, !tbaa !36
  %18 = load ptr, ptr %17, align 8, !tbaa !33
  %19 = load ptr, ptr %18, align 8, !tbaa !3
  store ptr %19, ptr %6, align 8, !tbaa !3
  br label %20

20:                                               ; preds = %25, %16
  %21 = load ptr, ptr %6, align 8, !tbaa !3
  %22 = getelementptr inbounds nuw %struct.WebPChunk, ptr %21, i32 0, i32 3
  %23 = load ptr, ptr %22, align 8, !tbaa !15
  %24 = icmp ne ptr %23, null
  br i1 %24, label %25, label %29

25:                                               ; preds = %20
  %26 = load ptr, ptr %6, align 8, !tbaa !3
  %27 = getelementptr inbounds nuw %struct.WebPChunk, ptr %26, i32 0, i32 3
  %28 = load ptr, ptr %27, align 8, !tbaa !15
  store ptr %28, ptr %6, align 8, !tbaa !3
  br label %20, !llvm.loop !38

29:                                               ; preds = %20
  %30 = load ptr, ptr %3, align 8, !tbaa !3
  %31 = load ptr, ptr %6, align 8, !tbaa !3
  %32 = getelementptr inbounds nuw %struct.WebPChunk, ptr %31, i32 0, i32 3
  %33 = call i32 @ChunkSetHead(ptr noundef %30, ptr noundef %32)
  store i32 %33, ptr %5, align 4, !tbaa !19
  %34 = load i32, ptr %5, align 4, !tbaa !19
  %35 = icmp eq i32 %34, 1
  br i1 %35, label %36, label %40

36:                                               ; preds = %29
  %37 = load ptr, ptr %6, align 8, !tbaa !3
  %38 = getelementptr inbounds nuw %struct.WebPChunk, ptr %37, i32 0, i32 3
  %39 = load ptr, ptr %4, align 8, !tbaa !36
  store ptr %38, ptr %39, align 8, !tbaa !33
  br label %40

40:                                               ; preds = %36, %29
  call void @llvm.lifetime.end.p0(i64 8, ptr %6) #6
  br label %41

41:                                               ; preds = %40, %11
  %42 = load i32, ptr %5, align 4, !tbaa !19
  call void @llvm.lifetime.end.p0(i64 4, ptr %5) #6
  ret i32 %42
}