; Function Attrs: nounwind uwtable
define hidden range(i32 -3, 2) i32 @ChunkAppend(ptr noundef captures(none) %0, ptr noundef captures(none) %1) local_unnamed_addr #3 {
  %3 = load ptr, ptr %1, align 8, !tbaa !31
  %4 = load ptr, ptr %3, align 8, !tbaa !28
  %5 = icmp eq ptr %4, null
  br i1 %5, label %6, label %.preheader

6:                                                ; preds = %2
  %7 = tail call ptr @WebPSafeMalloc(i64 noundef 1, i64 noundef 32) #13
  %8 = icmp eq ptr %7, null
  br i1 %8, label %ChunkSetHead.exit, label %9

9:                                                ; preds = %6
  tail call void @llvm.memcpy.p0.p0.i64(ptr noundef nonnull align 8 dereferenceable(32) %7, ptr noundef nonnull align 8 dereferenceable(32) %0, i64 24, i1 false), !tbaa.struct !29
  %10 = getelementptr inbounds nuw i8, ptr %0, i64 4
  store i32 0, ptr %10, align 4, !tbaa !3
  %11 = getelementptr inbounds nuw i8, ptr %7, i64 24
  store ptr null, ptr %11, align 8, !tbaa !14
  store ptr %7, ptr %3, align 8, !tbaa !28
  br label %ChunkSetHead.exit

.preheader:                                       ; preds = %2, %.preheader
  %.0 = phi ptr [ %13, %.preheader ], [ %4, %2 ]
  %12 = getelementptr inbounds nuw i8, ptr %.0, i64 24
  %13 = load ptr, ptr %12, align 8, !tbaa !14
  %.not = icmp eq ptr %13, null
  br i1 %.not, label %14, label %.preheader, !llvm.loop !33

14:                                               ; preds = %.preheader
  %15 = tail call ptr @WebPSafeMalloc(i64 noundef 1, i64 noundef 32) #13
  %16 = icmp eq ptr %15, null
  br i1 %16, label %ChunkSetHead.exit, label %17

17:                                               ; preds = %14
  %18 = getelementptr inbounds nuw i8, ptr %.0, i64 24
  tail call void @llvm.memcpy.p0.p0.i64(ptr noundef nonnull align 8 dereferenceable(32) %15, ptr noundef nonnull align 8 dereferenceable(32) %0, i64 24, i1 false), !tbaa.struct !29
  %19 = getelementptr inbounds nuw i8, ptr %0, i64 4
  store i32 0, ptr %19, align 4, !tbaa !3
  %20 = getelementptr inbounds nuw i8, ptr %15, i64 24
  store ptr null, ptr %20, align 8, !tbaa !14
  store ptr %15, ptr %18, align 8, !tbaa !28
  store ptr %18, ptr %1, align 8, !tbaa !31
  br label %ChunkSetHead.exit

ChunkSetHead.exit:                                ; preds = %14, %9, %6, %17
  %.011 = phi i32 [ 1, %17 ], [ 1, %9 ], [ -3, %6 ], [ -3, %14 ]
  ret i32 %.011
}